target datalayout = "e-m:e-p270:32:32-p271:32:32-p272:64:64-i64:64-i128:128-f80:128-n8:16:32:64-S128"
target triple = "x86_64-pc-linux-gnu"

%"class.icu_77::UnicodeString" = type { %"class.icu_77::Replaceable", %"union.icu_77::UnicodeString::StackBufferOrFields" }
%"class.icu_77::Replaceable" = type { %"class.icu_77::UObject" }
%"class.icu_77::UObject" = type { ptr }
%"union.icu_77::UnicodeString::StackBufferOrFields" = type { %struct.anon.0, [32 x i8] }
%struct.anon.0 = type { i16, i32, i32, ptr }
%"class.icu_77::VTimeZone" = type { %"class.icu_77::BasicTimeZone", ptr, ptr, %"class.icu_77::UnicodeString", double, %"class.icu_77::UnicodeString", %"class.icu_77::UnicodeString" }
%"class.icu_77::BasicTimeZone" = type { %"class.icu_77::TimeZone" }
%"class.icu_77::TimeZone" = type { %"class.icu_77::UObject", %"class.icu_77::UnicodeString" }

; Function Attrs: mustprogress uwtable
define noundef i32 @_ZNK6icu_779VTimeZone9getOffsetEhiiihiiR10UErrorCode(ptr noundef nonnull align 8 dereferenceable(288) %0, i8 noundef zeroext %1, i32 noundef %2, i32 noundef %3, i32 noundef %4, i8 noundef zeroext %5, i32 noundef %6, i32 noundef %7, ptr noundef nonnull align 4 dereferenceable(4) %8) unnamed_addr #1 align 2 {
  %10 = alloca ptr, align 8
  %11 = alloca i8, align 1
  %12 = alloca i32, align 4
  %13 = alloca i32, align 4
  %14 = alloca i32, align 4
  %15 = alloca i8, align 1
  %16 = alloca i32, align 4
  %17 = alloca i32, align 4
  %18 = alloca ptr, align 8
  store ptr %0, ptr %10, align 8, !tbaa !29
  store i8 %1, ptr %11, align 1, !tbaa !28
  store i32 %2, ptr %12, align 4, !tbaa !18
  store i32 %3, ptr %13, align 4, !tbaa !18
  store i32 %4, ptr %14, align 4, !tbaa !18
  store i8 %5, ptr %15, align 1, !tbaa !28
  store i32 %6, ptr %16, align 4, !tbaa !18
  store i32 %7, ptr %17, align 4, !tbaa !18
  store ptr %8, ptr %18, align 8, !tbaa !55
  %19 = load ptr, ptr %10, align 8
  %20 = getelementptr inbounds nuw %"class.icu_77::VTimeZone", ptr %19, i32 0, i32 1
  %21 = load ptr, ptr %20, align 8, !tbaa !33
  %22 = load i8, ptr %11, align 1, !tbaa !28
  %23 = load i32, ptr %12, align 4, !tbaa !18
  %24 = load i32, ptr %13, align 4, !tbaa !18
  %25 = load i32, ptr %14, align 4, !tbaa !18
  %26 = load i8, ptr %15, align 1, !tbaa !28
  %27 = load i32, ptr %16, align 4, !tbaa !18
  %28 = load i32, ptr %17, align 4, !tbaa !18
  %29 = load ptr, ptr %18, align 8, !tbaa !55
  %30 = load ptr, ptr %21, align 8, !tbaa !31
  %31 = getelementptr inbounds ptr, ptr %30, i64 5
  %32 = load ptr, ptr %31, align 8
  %33 = call noundef i32 %32(ptr noundef nonnull align 8 dereferenceable(72) %21, i8 noundef zeroext %22, i32 noundef %23, i32 noundef %24, i32 noundef %25, i8 noundef zeroext %26, i32 noundef %27, i32 noundef %28, ptr noundef nonnull align 4 dereferenceable(4) %29)
  ret i32 %33
}