; Function Attrs: mustprogress uwtable
define noundef i32 @_ZNK6icu_779VTimeZone9getOffsetEhiiihiiR10UErrorCode(ptr noundef nonnull readonly align 8 captures(none) dereferenceable(288) %0, i8 noundef zeroext %1, i32 noundef %2, i32 noundef %3, i32 noundef %4, i8 noundef zeroext %5, i32 noundef %6, i32 noundef %7, ptr noundef nonnull align 4 dereferenceable(4) %8) unnamed_addr #2 align 2 {
  %10 = getelementptr inbounds nuw i8, ptr %0, i64 72
  %11 = load ptr, ptr %10, align 8, !tbaa !29
  %12 = load ptr, ptr %11, align 8, !tbaa !17
  %13 = getelementptr inbounds nuw i8, ptr %12, i64 40
  %14 = load ptr, ptr %13, align 8
  %15 = tail call noundef i32 %14(ptr noundef nonnull align 8 dereferenceable(72) %11, i8 noundef zeroext %1, i32 noundef %2, i32 noundef %3, i32 noundef %4, i8 noundef zeroext %5, i32 noundef %6, i32 noundef %7, ptr noundef nonnull align 4 dereferenceable(4) %8)
  ret i32 %15
}